target datalayout = "e-m:e-p270:32:32-p271:32:32-p272:64:64-i64:64-i128:128-f80:128-n8:16:32:64-S128"
target triple = "x86_64-pc-linux-gnu"

%struct.termios = type { i32, i32, i32, i32, i8, [32 x i8], i32, i32 }
%struct.uv_tty_s = type { ptr, ptr, i32, ptr, %struct.uv__queue, %union.anon, ptr, i32, i64, ptr, ptr, ptr, ptr, %struct.uv__io_s, %struct.uv__queue, %struct.uv__queue, ptr, i32, i32, ptr, %struct.termios, i32 }
%union.anon = type { [4 x ptr] }
%struct.uv__io_s = type { ptr, %struct.uv__queue, %struct.uv__queue, i32, i32, i32 }
%struct.uv__queue = type { ptr, ptr }

; Function Attrs: nounwind uwtable
define internal i32 @uv__tty_is_slave(i32 noundef %0) #0 {
  %2 = alloca i32, align 4
  %3 = alloca i32, align 4
  %4 = alloca i32, align 4
  store i32 %0, ptr %2, align 4
  call void @llvm.lifetime.start.p0(i64 4, ptr %3) #6
  call void @llvm.lifetime.start.p0(i64 4, ptr %4) #6
  %5 = load i32, ptr %2, align 4
  %6 = call i32 (i32, i64, ...) @ioctl(i32 noundef %5, i64 noundef 2147767344, ptr noundef %4) #6
  %7 = icmp ne i32 %6, 0
  %8 = zext i1 %7 to i32
  store i32 %8, ptr %3, align 4
  %9 = load i32, ptr %3, align 4
  call void @llvm.lifetime.end.p0(i64 4, ptr %4) #6
  call void @llvm.lifetime.end.p0(i64 4, ptr %3) #6
  ret i32 %9
}

; Function Attrs: nounwind uwtable
define dso_local i32 @uv_tty_init(ptr noundef %0, ptr noundef %1, i32 noundef %2, i32 noundef %3) #0 {
  %5 = alloca i32, align 4
  %6 = alloca ptr, align 8
  %7 = alloca ptr, align 8
  %8 = alloca i32, align 4
  %9 = alloca i32, align 4
  %10 = alloca i32, align 4
  %11 = alloca i32, align 4
  %12 = alloca i32, align 4
  %13 = alloca i32, align 4
  %14 = alloca i32, align 4
  %15 = alloca i32, align 4
  %16 = alloca [256 x i8], align 16
  %17 = alloca i32, align 4
  store ptr %0, ptr %6, align 8
  store ptr %1, ptr %7, align 8
  store i32 %2, ptr %8, align 4
  store i32 %3, ptr %9, align 4
  call void @llvm.lifetime.start.p0(i64 4, ptr %10) #6
  call void @llvm.lifetime.start.p0(i64 4, ptr %11) #6
  call void @llvm.lifetime.start.p0(i64 4, ptr %12) #6
  call void @llvm.lifetime.start.p0(i64 4, ptr %13) #6
  call void @llvm.lifetime.start.p0(i64 4, ptr %14) #6
  call void @llvm.lifetime.start.p0(i64 4, ptr %15) #6
  call void @llvm.lifetime.start.p0(i64 256, ptr %16) #6
  %18 = load i32, ptr %8, align 4
  %19 = call i32 @uv_guess_handle(i32 noundef %18)
  store i32 %19, ptr %10, align 4
  %20 = load i32, ptr %10, align 4
  %21 = icmp eq i32 %20, 17
  br i1 %21, label %25, label %22

22:                                               ; preds = %4
  %23 = load i32, ptr %10, align 4
  %24 = icmp eq i32 %23, 0
  br i1 %24, label %25, label %26

25:                                               ; preds = %22, %4
  store i32 -22, ptr %5, align 4
  store i32 1, ptr %17, align 4
  br label %121

26:                                               ; preds = %22
  store i32 0, ptr %11, align 4
  store i32 -1, ptr %12, align 4
  br label %27

27:                                               ; preds = %37, %26
  %28 = load i32, ptr %8, align 4
  %29 = call i32 (i32, i32, ...) @fcntl64(i32 noundef %28, i32 noundef 3)
  store i32 %29, ptr %14, align 4
  br label %30

30:                                               ; preds = %27
  %31 = load i32, ptr %14, align 4
  %32 = icmp eq i32 %31, -1
  br i1 %32, label %33, label %37

33:                                               ; preds = %30
  %34 = call ptr @__errno_location() #7
  %35 = load i32, ptr %34, align 4
  %36 = icmp eq i32 %35, 4
  br label %37

37:                                               ; preds = %33, %30
  %38 = phi i1 [ false, %30 ], [ %36, %33 ]
  br i1 %38, label %27, label %39

39:                                               ; preds = %37
  %40 = load i32, ptr %14, align 4
  %41 = icmp eq i32 %40, -1
  br i1 %41, label %42, label %46

42:                                               ; preds = %39
  %43 = call ptr @__errno_location() #7
  %44 = load i32, ptr %43, align 4
  %45 = sub nsw i32 0, %44
  store i32 %45, ptr %5, align 4
  store i32 1, ptr %17, align 4
  br label %121

46:                                               ; preds = %39
  %47 = load i32, ptr %14, align 4
  %48 = and i32 %47, 3
  store i32 %48, ptr %15, align 4
  %49 = load i32, ptr %10, align 4
  %50 = icmp eq i32 %49, 14
  br i1 %50, label %51, label %92

51:                                               ; preds = %46
  %52 = load i32, ptr %8, align 4
  %53 = call i32 @uv__tty_is_slave(i32 noundef %52)
  %54 = icmp ne i32 %53, 0
  br i1 %54, label %55, label %65

55:                                               ; preds = %51
  %56 = load i32, ptr %8, align 4
  %57 = getelementptr inbounds [256 x i8], ptr %16, i64 0, i64 0
  %58 = call i32 @ttyname_r(i32 noundef %56, ptr noundef %57, i64 noundef 256) #6
  %59 = icmp eq i32 %58, 0
  br i1 %59, label %60, label %65

60:                                               ; preds = %55
  %61 = getelementptr inbounds [256 x i8], ptr %16, i64 0, i64 0
  %62 = load i32, ptr %15, align 4
  %63 = or i32 %62, 256
  %64 = call i32 @uv__open_cloexec(ptr noundef %61, i32 noundef %63)
  store i32 %64, ptr %13, align 4
  br label %66

65:                                               ; preds = %55, %51
  store i32 -1, ptr %13, align 4
  br label %66

66:                                               ; preds = %65, %60
  %67 = load i32, ptr %13, align 4
  %68 = icmp slt i32 %67, 0
  br i1 %68, label %69, label %76

69:                                               ; preds = %66
  %70 = load i32, ptr %15, align 4
  %71 = icmp ne i32 %70, 0
  br i1 %71, label %72, label %75

72:                                               ; preds = %69
  %73 = load i32, ptr %11, align 4
  %74 = or i32 %73, 1048576
  store i32 %74, ptr %11, align 4
  br label %75

75:                                               ; preds = %72, %69
  br label %93

76:                                               ; preds = %66
  %77 = load i32, ptr %13, align 4
  store i32 %77, ptr %12, align 4
  %78 = load i32, ptr %12, align 4
  %79 = load i32, ptr %8, align 4
  %80 = call i32 @uv__dup2_cloexec(i32 noundef %78, i32 noundef %79)
  store i32 %80, ptr %13, align 4
  %81 = load i32, ptr %13, align 4
  %82 = icmp slt i32 %81, 0
  br i1 %82, label %83, label %90

83:                                               ; preds = %76
  %84 = load i32, ptr %13, align 4
  %85 = icmp ne i32 %84, -22
  br i1 %85, label %86, label %90

86:                                               ; preds = %83
  %87 = load i32, ptr %12, align 4
  %88 = call i32 @uv__close(i32 noundef %87)
  %89 = load i32, ptr %13, align 4
  store i32 %89, ptr %5, align 4
  store i32 1, ptr %17, align 4
  br label %121

90:                                               ; preds = %83, %76
  %91 = load i32, ptr %12, align 4
  store i32 %91, ptr %8, align 4
  br label %92

92:                                               ; preds = %90, %46
  br label %93

93:                                               ; preds = %92, %75
  %94 = load ptr, ptr %6, align 8
  %95 = load ptr, ptr %7, align 8
  call void @uv__stream_init(ptr noundef %94, ptr noundef %95, i32 noundef 14)
  %96 = load i32, ptr %11, align 4
  %97 = and i32 %96, 1048576
  %98 = icmp ne i32 %97, 0
  br i1 %98, label %102, label %99

99:                                               ; preds = %93
  %100 = load i32, ptr %8, align 4
  %101 = call i32 @uv__nonblock_ioctl(i32 noundef %100, i32 noundef 1)
  br label %102

102:                                              ; preds = %99, %93
  %103 = load i32, ptr %15, align 4
  %104 = icmp ne i32 %103, 1
  br i1 %104, label %105, label %108

105:                                              ; preds = %102
  %106 = load i32, ptr %11, align 4
  %107 = or i32 %106, 16384
  store i32 %107, ptr %11, align 4
  br label %108

108:                                              ; preds = %105, %102
  %109 = load i32, ptr %15, align 4
  %110 = icmp ne i32 %109, 0
  br i1 %110, label %111, label %114

111:                                              ; preds = %108
  %112 = load i32, ptr %11, align 4
  %113 = or i32 %112, 32768
  store i32 %113, ptr %11, align 4
  br label %114

114:                                              ; preds = %111, %108
  %115 = load ptr, ptr %7, align 8
  %116 = load i32, ptr %8, align 4
  %117 = load i32, ptr %11, align 4
  %118 = call i32 @uv__stream_open(ptr noundef %115, i32 noundef %116, i32 noundef %117)
  %119 = load ptr, ptr %7, align 8
  %120 = getelementptr inbounds nuw %struct.uv_tty_s, ptr %119, i32 0, i32 21
  store i32 0, ptr %120, align 4
  store i32 0, ptr %5, align 4
  store i32 1, ptr %17, align 4
  br label %121

121:                                              ; preds = %114, %86, %42, %25
  call void @llvm.lifetime.end.p0(i64 256, ptr %16) #6
  call void @llvm.lifetime.end.p0(i64 4, ptr %15) #6
  call void @llvm.lifetime.end.p0(i64 4, ptr %14) #6
  call void @llvm.lifetime.end.p0(i64 4, ptr %13) #6
  call void @llvm.lifetime.end.p0(i64 4, ptr %12) #6
  call void @llvm.lifetime.end.p0(i64 4, ptr %11) #6
  call void @llvm.lifetime.end.p0(i64 4, ptr %10) #6
  %122 = load i32, ptr %5, align 4
  ret i32 %122
}